target datalayout = "e-m:e-p270:32:32-p271:32:32-p272:64:64-i64:64-i128:128-f80:128-n8:16:32:64-S128"
target triple = "x86_64-pc-linux-gnu"

@proto_register_gmr1_bcch.ett = internal global [1 x ptr] [ptr @ett_gmr1_bcch], align 8
@.str.207 = private unnamed_addr constant [26 x i8] c"GEO-Mobile Radio (1) BCCH\00", align 1
@.str.208 = private unnamed_addr constant [11 x i8] c"GMR-1 BCCH\00", align 1
@.str.209 = private unnamed_addr constant [10 x i8] c"gmr1.bcch\00", align 1
@proto_gmr1_bcch = internal global i32 0, align 4
@.str.210 = private unnamed_addr constant [10 x i8] c"gmr1_bcch\00", align 1

; Function Attrs: null_pointer_is_valid sspstrong uwtable
define hidden void @proto_register_gmr1_bcch() #0 {
  %1 = alloca ptr, align 8
  call void @llvm.lifetime.start.p0(i64 8, ptr %1) #5
  %2 = call i32 @proto_register_protocol(ptr noundef @.str.207, ptr noundef @.str.208, ptr noundef @.str.209)
  store i32 %2, ptr @proto_gmr1_bcch, align 4
  %3 = load i32, ptr @proto_gmr1_bcch, align 4
  call void @proto_register_field_array(i32 noundef %3, ptr noundef @proto_register_gmr1_bcch.hf, i32 noundef 101)
  call void @proto_register_subtree_array(ptr noundef @proto_register_gmr1_bcch.ett, i32 noundef 1)
  %4 = load i32, ptr @proto_gmr1_bcch, align 4
  %5 = call ptr @expert_register_protocol(i32 noundef %4)
  store ptr %5, ptr %1, align 8
  %6 = load ptr, ptr %1, align 8
  call void @expert_register_field_array(ptr noundef %6, ptr noundef @proto_register_gmr1_bcch.ei, i32 noundef 1)
  %7 = load i32, ptr @proto_gmr1_bcch, align 4
  %8 = call ptr @register_dissector(ptr noundef @.str.210, ptr noundef @dissect_gmr1_bcch, i32 noundef %7)
  call void @llvm.lifetime.end.p0(i64 8, ptr %1) #5
  ret void
}